target datalayout = "e-m:e-p270:32:32-p271:32:32-p272:64:64-i64:64-i128:128-f80:128-n8:16:32:64-S128"
target triple = "x86_64-pc-linux-gnu"

%struct.AVCodecContext = type { ptr, i32, i32, ptr, i32, i32, ptr, ptr, ptr, i64, i32, i32, ptr, i32, %struct.AVRational, %struct.AVRational, %struct.AVRational, i32, i32, i32, i32, i32, %struct.AVRational, i32, i32, i32, i32, i32, i32, i32, i32, i32, i32, i32, ptr, ptr, i32, float, float, float, float, float, float, float, float, float, i32, i32, i32, i32, i32, i32, i32, i32, i32, i32, i32, i32, ptr, ptr, ptr, i32, i32, i32, i32, i32, i32, i32, i32, i32, i32, %struct.AVChannelLayout, i32, i32, i32, i32, i32, i32, i32, i32, ptr, i32, i32, i32, float, float, i32, i32, i32, i32, i32, ptr, i64, i64, float, float, i32, i32, ptr, ptr, i32, i32, i32, i32, i32, ptr, ptr, ptr, ptr, i32, i32, [8 x i64], i32, i32, i32, i32, i32, i32, i32, ptr, ptr, i32, i32, i32, i32, i32, i32, i32, i32, i32, i32, ptr, ptr, i32, i32, ptr, ptr, ptr, ptr, i32, i32, i64, i32, i32, i64, ptr, i64, ptr, i32, ptr, i32 }
%struct.AVRational = type { i32, i32 }
%struct.AVChannelLayout = type { i32, i32, %union.anon.1, ptr }
%union.anon.1 = type { i64 }
%struct.DBEDecodeContext = type { ptr, ptr, %struct.DBEContext, [8 x i8], [2 x [8 x %struct.DBEChannel]], [8 x [256 x float]], [2 x [3 x ptr]], [2 x [3 x ptr]], ptr, [8 x i8] }
%struct.DBEContext = type { ptr, %struct.GetBitContext, ptr, i32, i32, i32, i32, %struct.DolbyEHeaderInfo, [3136 x i8] }
%struct.GetBitContext = type { ptr, ptr, i32, i32, i32 }
%struct.DolbyEHeaderInfo = type { i32, i32, i32, i32, i32, [8 x i32], i32, i32, [8 x i32], [8 x i32], [8 x i32], i32, i32, i32 }
%struct.DBEChannel = type { i32, i32, i32, i32, [8 x %struct.DBEGroup], [8 x i32], [304 x i32], [304 x i32], [304 x i32], [1024 x float] }
%struct.DBEGroup = type { i8, [2 x i8], i16, i16, ptr, i8, i8, i16, i16, i16, i16 }

; Function Attrs: cold nounwind optsize uwtable
define internal i32 @dolby_e_close(ptr noundef %0) #0 {
  %2 = alloca ptr, align 8
  %3 = alloca ptr, align 8
  %4 = alloca i32, align 4
  store ptr %0, ptr %2, align 8, !tbaa !4
  call void @llvm.lifetime.start.p0(i64 8, ptr %3) #10
  %5 = load ptr, ptr %2, align 8, !tbaa !4
  %6 = getelementptr inbounds nuw %struct.AVCodecContext, ptr %5, i32 0, i32 6
  %7 = load ptr, ptr %6, align 8, !tbaa !9
  store ptr %7, ptr %3, align 8, !tbaa !29
  call void @llvm.lifetime.start.p0(i64 4, ptr %4) #10
  store i32 0, ptr %4, align 4, !tbaa !32
  br label %8

8:                                                ; preds = %25, %1
  %9 = load i32, ptr %4, align 4, !tbaa !32
  %10 = icmp slt i32 %9, 3
  br i1 %10, label %12, label %11

11:                                               ; preds = %8
  call void @llvm.lifetime.end.p0(i64 4, ptr %4) #10
  br label %28

12:                                               ; preds = %8
  %13 = load ptr, ptr %3, align 8, !tbaa !29
  %14 = getelementptr inbounds nuw %struct.DBEDecodeContext, ptr %13, i32 0, i32 6
  %15 = getelementptr inbounds [2 x [3 x ptr]], ptr %14, i64 0, i64 0
  %16 = load i32, ptr %4, align 4, !tbaa !32
  %17 = sext i32 %16 to i64
  %18 = getelementptr inbounds [3 x ptr], ptr %15, i64 0, i64 %17
  call void @av_tx_uninit(ptr noundef %18)
  %19 = load ptr, ptr %3, align 8, !tbaa !29
  %20 = getelementptr inbounds nuw %struct.DBEDecodeContext, ptr %19, i32 0, i32 6
  %21 = getelementptr inbounds [2 x [3 x ptr]], ptr %20, i64 0, i64 1
  %22 = load i32, ptr %4, align 4, !tbaa !32
  %23 = sext i32 %22 to i64
  %24 = getelementptr inbounds [3 x ptr], ptr %21, i64 0, i64 %23
  call void @av_tx_uninit(ptr noundef %24)
  br label %25

25:                                               ; preds = %12
  %26 = load i32, ptr %4, align 4, !tbaa !32
  %27 = add nsw i32 %26, 1
  store i32 %27, ptr %4, align 4, !tbaa !32
  br label %8, !llvm.loop !70

28:                                               ; preds = %11
  %29 = load ptr, ptr %3, align 8, !tbaa !29
  %30 = getelementptr inbounds nuw %struct.DBEDecodeContext, ptr %29, i32 0, i32 8
  call void @av_freep(ptr noundef %30)
  call void @llvm.lifetime.end.p0(i64 8, ptr %3) #10
  ret i32 0
}