; Function Attrs: cold nounwind optsize uwtable
define internal noundef i32 @dolby_e_close(ptr noundef readonly captures(none) %0) #0 {
  %2 = getelementptr inbounds nuw i8, ptr %0, i64 32
  %3 = load ptr, ptr %2, align 8, !tbaa !4
  %4 = getelementptr inbounds nuw i8, ptr %3, i64 140352
  %5 = getelementptr inbounds nuw i8, ptr %3, i64 140376
  br label %8

6:                                                ; preds = %8
  %7 = getelementptr inbounds nuw i8, ptr %3, i64 140448
  tail call void @av_freep(ptr noundef nonnull %7) #10
  ret i32 0

8:                                                ; preds = %1, %8
  %indvars.iv = phi i64 [ 0, %1 ], [ %indvars.iv.next, %8 ]
  %9 = getelementptr inbounds nuw [3 x ptr], ptr %4, i64 0, i64 %indvars.iv
  tail call void @av_tx_uninit(ptr noundef nonnull %9) #10
  %10 = getelementptr inbounds nuw [3 x ptr], ptr %5, i64 0, i64 %indvars.iv
  tail call void @av_tx_uninit(ptr noundef nonnull %10) #10
  %indvars.iv.next = add nuw nsw i64 %indvars.iv, 1
  %exitcond.not = icmp eq i64 %indvars.iv.next, 3
  br i1 %exitcond.not, label %6, label %8, !llvm.loop !77
}